; Function Attrs: nounwind uwtable
define ptr @l_Lean_Meta_mkCongrSimpCore_x3f_mk_x3f_go___lambda__3(ptr noundef %0, ptr noundef %1, ptr noundef %2, ptr noundef %3, i8 noundef zeroext %4, ptr noundef %5, ptr noundef %6, ptr noundef %7, ptr noundef %8, ptr noundef %9, ptr noundef %10, ptr noundef %11, ptr noundef %12, ptr noundef %13, ptr noundef %14) local_unnamed_addr #1 {
  %16 = ptrtoint ptr %0 to i64
  %17 = and i64 %16, 1
  %.not = icmp eq i64 %17, 0
  br i1 %.not, label %.critedge.i, label %18, !prof !15

18:                                               ; preds = %15
  %19 = lshr i64 %16, 1
  %20 = add nuw i64 %19, 1
  %21 = icmp sgt i64 %20, -1
  br i1 %21, label %22, label %26, !prof !9

22:                                               ; preds = %18
  %23 = shl nuw i64 %20, 1
  %24 = or disjoint i64 %23, 1
  %25 = inttoptr i64 %24 to ptr
  br label %lean_nat_add.exit

26:                                               ; preds = %18
  %27 = tail call ptr @lean_big_usize_to_nat(i64 noundef range(i64 0, -1) %20) #7
  br label %lean_nat_add.exit

.critedge.i:                                      ; preds = %15
  %28 = tail call ptr @lean_nat_big_add(ptr noundef %0, ptr noundef nonnull inttoptr (i64 3 to ptr)) #7
  br label %lean_nat_add.exit

lean_nat_add.exit:                                ; preds = %26, %22, %.critedge.i
  %.0.i = phi ptr [ %28, %.critedge.i ], [ %25, %22 ], [ %27, %26 ]
  %29 = ptrtoint ptr %9 to i64
  %30 = and i64 %29, 1
  %.not24 = icmp eq i64 %30, 0
  br i1 %.not24, label %31, label %lean_inc.exit

31:                                               ; preds = %lean_nat_add.exit
  %.val.i = load i32, ptr %9, align 4, !tbaa !4
  %32 = icmp sgt i32 %.val.i, 0
  br i1 %32, label %33, label %35, !prof !9

33:                                               ; preds = %31
  %34 = add nuw i32 %.val.i, 1
  store i32 %34, ptr %9, align 4, !tbaa !4
  br label %lean_inc.exit

35:                                               ; preds = %31
  %.not.i = icmp eq i32 %.val.i, 0
  br i1 %.not.i, label %lean_inc.exit, label %36

36:                                               ; preds = %35
  tail call void @lean_inc_ref_cold(ptr noundef nonnull %9) #7
  br label %lean_inc.exit

lean_inc.exit:                                    ; preds = %36, %35, %33, %lean_nat_add.exit
  %37 = tail call ptr @lean_array_push(ptr noundef %1, ptr noundef %9) #7
  %38 = tail call ptr @lean_array_push(ptr noundef %2, ptr noundef nonnull inttoptr (i64 1 to ptr)) #7
  %39 = tail call ptr @lean_array_push(ptr noundef %3, ptr noundef %9) #7
  %40 = tail call ptr @l_Lean_Meta_mkCongrSimpCore_x3f_mk_x3f_go(i8 noundef zeroext %4, ptr noundef %5, ptr noundef %6, ptr noundef %7, ptr noundef %8, ptr noundef %.0.i, ptr noundef %37, ptr noundef %38, ptr noundef %39, ptr noundef %10, ptr noundef %11, ptr noundef %12, ptr noundef %13, ptr noundef %14)
  ret ptr %40
}